
Discarded input sections

 .group         0x0000000000000000        0x8 /home/cron/ubuntu/project/build/main.o
 .note.GNU-stack
                0x0000000000000000        0x0 /home/cron/ubuntu/project/build/main.o
 .group         0x0000000000000000        0x8 /home/cron/ubuntu/project/build/init.o
 .text.__x86.get_pc_thunk.bx
                0x0000000000000000        0x4 /home/cron/ubuntu/project/build/init.o
 .note.GNU-stack
                0x0000000000000000        0x0 /home/cron/ubuntu/project/build/init.o
 .group         0x0000000000000000        0x8 /home/cron/ubuntu/project/build/interrupt.o
 .group         0x0000000000000000        0x8 /home/cron/ubuntu/project/build/interrupt.o
 .text.__x86.get_pc_thunk.bx
                0x0000000000000000        0x4 /home/cron/ubuntu/project/build/interrupt.o
 .note.GNU-stack
                0x0000000000000000        0x0 /home/cron/ubuntu/project/build/interrupt.o
 .group         0x0000000000000000        0x8 /home/cron/ubuntu/project/build/timer.o
 .group         0x0000000000000000        0x8 /home/cron/ubuntu/project/build/timer.o
 .text.__x86.get_pc_thunk.ax
                0x0000000000000000        0x4 /home/cron/ubuntu/project/build/timer.o
 .text.__x86.get_pc_thunk.bx
                0x0000000000000000        0x4 /home/cron/ubuntu/project/build/timer.o
 .note.GNU-stack
                0x0000000000000000        0x0 /home/cron/ubuntu/project/build/timer.o
 .group         0x0000000000000000        0x8 /home/cron/ubuntu/project/build/debug.o
 .text.__x86.get_pc_thunk.bx
                0x0000000000000000        0x4 /home/cron/ubuntu/project/build/debug.o
 .note.GNU-stack
                0x0000000000000000        0x0 /home/cron/ubuntu/project/build/debug.o
 .group         0x0000000000000000        0x8 /home/cron/ubuntu/project/build/string.o
 .text.__x86.get_pc_thunk.ax
                0x0000000000000000        0x4 /home/cron/ubuntu/project/build/string.o
 .note.GNU-stack
                0x0000000000000000        0x0 /home/cron/ubuntu/project/build/string.o
 .group         0x0000000000000000        0x8 /home/cron/ubuntu/project/build/memory.o
 .group         0x0000000000000000        0x8 /home/cron/ubuntu/project/build/memory.o
 .text.__x86.get_pc_thunk.ax
                0x0000000000000000        0x4 /home/cron/ubuntu/project/build/memory.o
 .text.__x86.get_pc_thunk.bx
                0x0000000000000000        0x4 /home/cron/ubuntu/project/build/memory.o
 .note.GNU-stack
                0x0000000000000000        0x0 /home/cron/ubuntu/project/build/memory.o
 .group         0x0000000000000000        0x8 /home/cron/ubuntu/project/build/bitmap.o
 .text.__x86.get_pc_thunk.ax
                0x0000000000000000        0x4 /home/cron/ubuntu/project/build/bitmap.o
 .note.GNU-stack
                0x0000000000000000        0x0 /home/cron/ubuntu/project/build/bitmap.o
 .group         0x0000000000000000        0x8 /home/cron/ubuntu/project/build/thread.o
 .group         0x0000000000000000        0x8 /home/cron/ubuntu/project/build/thread.o
 .group         0x0000000000000000        0x8 /home/cron/ubuntu/project/build/thread.o
 .text.__x86.get_pc_thunk.ax
                0x0000000000000000        0x4 /home/cron/ubuntu/project/build/thread.o
 .text.__x86.get_pc_thunk.bx
                0x0000000000000000        0x4 /home/cron/ubuntu/project/build/thread.o
 .note.GNU-stack
                0x0000000000000000        0x0 /home/cron/ubuntu/project/build/thread.o
 .group         0x0000000000000000        0x8 /home/cron/ubuntu/project/build/list.o
 .group         0x0000000000000000        0x8 /home/cron/ubuntu/project/build/list.o
 .text.__x86.get_pc_thunk.ax
                0x0000000000000000        0x4 /home/cron/ubuntu/project/build/list.o
 .text.__x86.get_pc_thunk.bx
                0x0000000000000000        0x4 /home/cron/ubuntu/project/build/list.o
 .note.GNU-stack
                0x0000000000000000        0x0 /home/cron/ubuntu/project/build/list.o

Memory Configuration

Name             Origin             Length             Attributes
*default*        0x0000000000000000 0xffffffffffffffff

Linker script and memory map

Address of section .text set to 0xc0001500
LOAD /home/cron/ubuntu/project/build/main.o
LOAD /home/cron/ubuntu/project/build/init.o
LOAD /home/cron/ubuntu/project/build/interrupt.o
LOAD /home/cron/ubuntu/project/build/timer.o
LOAD /home/cron/ubuntu/project/build/kernel.o
LOAD /home/cron/ubuntu/project/build/print.o
LOAD /home/cron/ubuntu/project/build/debug.o
LOAD /home/cron/ubuntu/project/build/string.o
LOAD /home/cron/ubuntu/project/build/memory.o
LOAD /home/cron/ubuntu/project/build/bitmap.o
LOAD /home/cron/ubuntu/project/build/thread.o
LOAD /home/cron/ubuntu/project/build/list.o
LOAD /home/cron/ubuntu/project/build/switch.o
                [!provide]                        PROVIDE (__executable_start = SEGMENT_START ("text-segment", 0x8048000))
                0x00000000080480d4                . = (SEGMENT_START ("text-segment", 0x8048000) + SIZEOF_HEADERS)

.interp
 *(.interp)

.note.gnu.build-id
 *(.note.gnu.build-id)

.hash
 *(.hash)

.gnu.hash
 *(.gnu.hash)

.dynsym
 *(.dynsym)

.dynstr
 *(.dynstr)

.gnu.version
 *(.gnu.version)

.gnu.version_d
 *(.gnu.version_d)

.gnu.version_r
 *(.gnu.version_r)

.rel.dyn        0x00000000080480d4        0x0
 *(.rel.init)
 *(.rel.text .rel.text.* .rel.gnu.linkonce.t.*)
 *(.rel.fini)
 *(.rel.rodata .rel.rodata.* .rel.gnu.linkonce.r.*)
 *(.rel.data.rel.ro .rel.data.rel.ro.* .rel.gnu.linkonce.d.rel.ro.*)
 *(.rel.data .rel.data.* .rel.gnu.linkonce.d.*)
 *(.rel.tdata .rel.tdata.* .rel.gnu.linkonce.td.*)
 *(.rel.tbss .rel.tbss.* .rel.gnu.linkonce.tb.*)
 *(.rel.ctors)
 *(.rel.dtors)
 *(.rel.got)
 .rel.got       0x00000000080480d4        0x0 /home/cron/ubuntu/project/build/main.o
 *(.rel.bss .rel.bss.* .rel.gnu.linkonce.b.*)
 *(.rel.ifunc)

.rel.plt        0x00000000080480d4        0x0
 *(.rel.plt)
                [!provide]                        PROVIDE (__rel_iplt_start = .)
 *(.rel.iplt)
 .rel.iplt      0x00000000080480d4        0x0 /home/cron/ubuntu/project/build/main.o
                [!provide]                        PROVIDE (__rel_iplt_end = .)

.relr.dyn
 *(.relr.dyn)
                0x0000000008049000                . = ALIGN (CONSTANT (MAXPAGESIZE))

.init
 *(SORT_NONE(.init))

.plt            0x0000000008049000        0x0
 *(.plt)
 *(.iplt)
 .iplt          0x0000000008049000        0x0 /home/cron/ubuntu/project/build/main.o

.plt.got
 *(.plt.got)

.plt.sec
 *(.plt.sec)

.text           0x00000000c0001500     0x2275
 *(.text.unlikely .text.*_unlikely .text.unlikely.*)
 *(.text.exit .text.exit.*)
 *(.text.startup .text.startup.*)
 *(.text.hot .text.hot.*)
 *(SORT_BY_NAME(.text.sorted.*))
 *(.text .stub .text.* .gnu.linkonce.t.*)
 .text          0x00000000c0001500       0xc6 /home/cron/ubuntu/project/build/main.o
                0x00000000c0001500                k_thread_a
                0x00000000c0001528                k_thread_b
                0x00000000c0001550                main
 .text.__x86.get_pc_thunk.bx
                0x00000000c00015c6        0x4 /home/cron/ubuntu/project/build/main.o
                0x00000000c00015c6                __x86.get_pc_thunk.bx
 .text          0x00000000c00015ca       0x2c /home/cron/ubuntu/project/build/init.o
                0x00000000c00015ca                init_all
 .text          0x00000000c00015f6      0x4fd /home/cron/ubuntu/project/build/interrupt.o
                0x00000000c0001852                register_handler
                0x00000000c00019a8                init_idt
                0x00000000c0001a42                intr_enable
                0x00000000c0001a75                intr_disable
                0x00000000c0001aa8                intr_get_status
                0x00000000c0001acf                intr_set_status
 .text.__x86.get_pc_thunk.ax
                0x00000000c0001af3        0x4 /home/cron/ubuntu/project/build/interrupt.o
                0x00000000c0001af3                __x86.get_pc_thunk.ax
 .text          0x00000000c0001af7      0x18f /home/cron/ubuntu/project/build/timer.o
                0x00000000c0001c45                init_time
 *fill*         0x00000000c0001c86        0xa 
 .text          0x00000000c0001c90      0x3f6 /home/cron/ubuntu/project/build/kernel.o
 *fill*         0x00000000c0002086        0xa 
 .text          0x00000000c0002090      0x190 /home/cron/ubuntu/project/build/print.o
                0x00000000c0002090                put_char
                0x00000000c0002172                put_str
                0x00000000c0002192                put_int
                0x00000000c00021f4                set_cursor
 .text          0x00000000c0002220       0xce /home/cron/ubuntu/project/build/debug.o
                0x00000000c0002220                panic_spin
 .text          0x00000000c00022ee      0x4e1 /home/cron/ubuntu/project/build/string.o
                0x00000000c00022ee                memset
                0x00000000c0002357                memcpy
                0x00000000c00023ce                memcmp
                0x00000000c0002467                strcpy
                0x00000000c00024d8                strlen
                0x00000000c0002535                strcmp
                0x00000000c00025d5                strchr
                0x00000000c000265b                strrchr
                0x00000000c00026d3                strcat
                0x00000000c0002759                strchrs
 .text          0x00000000c00027cf      0x613 /home/cron/ubuntu/project/build/memory.o
                0x00000000c0002a60                malloc_page
                0x00000000c0002b2e                get_kernel_page
                0x00000000c0002d8e                init_mem
 .text          0x00000000c0002de2      0x22e /home/cron/ubuntu/project/build/bitmap.o
                0x00000000c0002de2                init_bitmap
                0x00000000c0002e15                test_bitmap_scan
                0x00000000c0002e5e                bitmap_scan
                0x00000000c0002f4c                set_bitmap
 .text          0x00000000c0003010      0x4b1 /home/cron/ubuntu/project/build/thread.o
                0x00000000c0003010                running_thread
                0x00000000c000305b                thread_create
                0x00000000c00030df                init_thread
                0x00000000c000318a                thread_start
                0x00000000c000331f                schedule
                0x00000000c000345c                thread_init
 .text.__x86.get_pc_thunk.dx
                0x00000000c00034c1        0x4 /home/cron/ubuntu/project/build/thread.o
                0x00000000c00034c1                __x86.get_pc_thunk.dx
 .text          0x00000000c00034c5      0x299 /home/cron/ubuntu/project/build/list.o
                0x00000000c00034c5                list_init
                0x00000000c00034fd                list_insert_before
                0x00000000c0003555                list_push
                0x00000000c000357d                list_append
                0x00000000c00035a5                list_remove
                0x00000000c00035ee                list_pop
                0x00000000c0003653                list_empty
                0x00000000c0003676                list_len
                0x00000000c00036b5                list_traversal
                0x00000000c0003719                elem_find
 *fill*         0x00000000c000375e        0x2 
 .text          0x00000000c0003760       0x15 /home/cron/ubuntu/project/build/switch.o
                0x00000000c0003760                switch_to
 *(.gnu.warning)

.fini
 *(SORT_NONE(.fini))
                [!provide]                        PROVIDE (__etext = .)
                [!provide]                        PROVIDE (_etext = .)
                [!provide]                        PROVIDE (etext = .)
                0x00000000c0004000                . = ALIGN (CONSTANT (MAXPAGESIZE))
                0x00000000c0004000                . = SEGMENT_START ("rodata-segment", (ALIGN (CONSTANT (MAXPAGESIZE)) + (. & (CONSTANT (MAXPAGESIZE) - 0x1))))

.rodata         0x00000000c0004000      0x6e1
 *(.rodata .rodata.* .gnu.linkonce.r.*)
 .rodata        0x00000000c0004000       0x42 /home/cron/ubuntu/project/build/main.o
 *fill*         0x00000000c0004042        0x2 
 .rodata        0x00000000c0004044      0x2a8 /home/cron/ubuntu/project/build/interrupt.o
 .rodata        0x00000000c00042ec       0x37 /home/cron/ubuntu/project/build/timer.o
 .rodata        0x00000000c0004323       0x23 /home/cron/ubuntu/project/build/debug.o
 *fill*         0x00000000c0004346        0x2 
 .rodata        0x00000000c0004348       0xd4 /home/cron/ubuntu/project/build/string.o
 .rodata        0x00000000c000441c       0xf0 /home/cron/ubuntu/project/build/memory.o
 .rodata        0x00000000c000450c       0x2b /home/cron/ubuntu/project/build/bitmap.o
 *fill*         0x00000000c0004537        0x1 
 .rodata        0x00000000c0004538      0x175 /home/cron/ubuntu/project/build/thread.o
 *fill*         0x00000000c00046ad        0x3 
 .rodata        0x00000000c00046b0       0x31 /home/cron/ubuntu/project/build/list.o

.rodata1
 *(.rodata1)

.eh_frame_hdr
 *(.eh_frame_hdr)
 *(.eh_frame_entry .eh_frame_entry.*)

.eh_frame       0x00000000c00046e4      0x8a8
 *(.eh_frame)
 .eh_frame      0x00000000c00046e4       0x8c /home/cron/ubuntu/project/build/main.o
 .eh_frame      0x00000000c0004770       0x24 /home/cron/ubuntu/project/build/init.o
                                         0x50 (size before relaxing)
 .eh_frame      0x00000000c0004794      0x1a0 /home/cron/ubuntu/project/build/interrupt.o
                                        0x1cc (size before relaxing)
 .eh_frame      0x00000000c0004934       0x94 /home/cron/ubuntu/project/build/timer.o
                                         0xd4 (size before relaxing)
 .eh_frame      0x00000000c00049c8       0x1c /home/cron/ubuntu/project/build/debug.o
                                         0x48 (size before relaxing)
 .eh_frame      0x00000000c00049e4      0x168 /home/cron/ubuntu/project/build/string.o
                                        0x194 (size before relaxing)
 .eh_frame      0x00000000c0004b4c      0x13c /home/cron/ubuntu/project/build/memory.o
                                        0x17c (size before relaxing)
 .eh_frame      0x00000000c0004c88       0x8c /home/cron/ubuntu/project/build/bitmap.o
                                         0xb8 (size before relaxing)
 .eh_frame      0x00000000c0004d14      0x12c /home/cron/ubuntu/project/build/thread.o
                                        0x16c (size before relaxing)
 .eh_frame      0x00000000c0004e40      0x14c /home/cron/ubuntu/project/build/list.o
                                        0x18c (size before relaxing)
 *(.eh_frame.*)

.gcc_except_table
 *(.gcc_except_table .gcc_except_table.*)

.gnu_extab
 *(.gnu_extab*)

.exception_ranges
 *(.exception_ranges*)
                0x00000000c0006000                . = DATA_SEGMENT_ALIGN (CONSTANT (MAXPAGESIZE), CONSTANT (COMMONPAGESIZE))

.eh_frame
 *(.eh_frame)
 *(.eh_frame.*)

.gnu_extab
 *(.gnu_extab)

.gcc_except_table
 *(.gcc_except_table .gcc_except_table.*)

.exception_ranges
 *(.exception_ranges*)

.tdata          0x00000000c0006000        0x0
                [!provide]                        PROVIDE (__tdata_start = .)
 *(.tdata .tdata.* .gnu.linkonce.td.*)

.tbss
 *(.tbss .tbss.* .gnu.linkonce.tb.*)
 *(.tcommon)

.preinit_array  0x00000000c0006000        0x0
                [!provide]                        PROVIDE (__preinit_array_start = .)
 *(.preinit_array)
                [!provide]                        PROVIDE (__preinit_array_end = .)

.init_array     0x00000000c0006000        0x0
                [!provide]                        PROVIDE (__init_array_start = .)
 *(SORT_BY_INIT_PRIORITY(.init_array.*) SORT_BY_INIT_PRIORITY(.ctors.*))
 *(.init_array EXCLUDE_FILE(*crtend?.o *crtend.o *crtbegin?.o *crtbegin.o) .ctors)
                [!provide]                        PROVIDE (__init_array_end = .)

.fini_array     0x00000000c0006000        0x0
                [!provide]                        PROVIDE (__fini_array_start = .)
 *(SORT_BY_INIT_PRIORITY(.fini_array.*) SORT_BY_INIT_PRIORITY(.dtors.*))
 *(.fini_array EXCLUDE_FILE(*crtend?.o *crtend.o *crtbegin?.o *crtbegin.o) .dtors)
                [!provide]                        PROVIDE (__fini_array_end = .)

.ctors
 *crtbegin.o(.ctors)
 *crtbegin?.o(.ctors)
 *(EXCLUDE_FILE(*crtend?.o *crtend.o) .ctors)
 *(SORT_BY_NAME(.ctors.*))
 *(.ctors)

.dtors
 *crtbegin.o(.dtors)
 *crtbegin?.o(.dtors)
 *(EXCLUDE_FILE(*crtend?.o *crtend.o) .dtors)
 *(SORT_BY_NAME(.dtors.*))
 *(.dtors)

.jcr
 *(.jcr)

.data.rel.ro
 *(.data.rel.ro.local* .gnu.linkonce.d.rel.ro.local.*)
 *(.data.rel.ro .data.rel.ro.* .gnu.linkonce.d.rel.ro.*)

.dynamic
 *(.dynamic)

.got            0x00000000c0006000        0x0
 *(.got)
 .got           0x00000000c0006000        0x0 /home/cron/ubuntu/project/build/main.o
 *(.igot)
                0x00000000c0006ff4                . = DATA_SEGMENT_RELRO_END (., (SIZEOF (.got.plt) >= 0xc)?0xc:0x0)

.got.plt        0x00000000c0006000        0xc
 *(.got.plt)
 .got.plt       0x00000000c0006000        0xc /home/cron/ubuntu/project/build/main.o
                0x00000000c0006000                _GLOBAL_OFFSET_TABLE_
 *(.igot.plt)
 .igot.plt      0x00000000c000600c        0x0 /home/cron/ubuntu/project/build/main.o

.data           0x00000000c000600c       0x8c
 *(.data .data.* .gnu.linkonce.d.*)
 .data          0x00000000c000600c        0x0 /home/cron/ubuntu/project/build/main.o
 .data          0x00000000c000600c        0x0 /home/cron/ubuntu/project/build/init.o
 .data          0x00000000c000600c        0x0 /home/cron/ubuntu/project/build/interrupt.o
 .data          0x00000000c000600c        0x0 /home/cron/ubuntu/project/build/timer.o
 .data          0x00000000c000600c       0x84 /home/cron/ubuntu/project/build/kernel.o
                0x00000000c000600c                intr_entry_table
 .data          0x00000000c0006090        0x8 /home/cron/ubuntu/project/build/print.o
 .data          0x00000000c0006098        0x0 /home/cron/ubuntu/project/build/debug.o
 .data          0x00000000c0006098        0x0 /home/cron/ubuntu/project/build/string.o
 .data          0x00000000c0006098        0x0 /home/cron/ubuntu/project/build/memory.o
 .data          0x00000000c0006098        0x0 /home/cron/ubuntu/project/build/bitmap.o
 .data          0x00000000c0006098        0x0 /home/cron/ubuntu/project/build/thread.o
 .data          0x00000000c0006098        0x0 /home/cron/ubuntu/project/build/list.o

.data1
 *(.data1)
                0x00000000c0006098                _edata = .
                [!provide]                        PROVIDE (edata = .)
                0x00000000c0006098                . = .
                0x00000000c0006098                __bss_start = .

.bss            0x00000000c00060a0      0x180
 *(.dynbss)
 *(.bss .bss.* .gnu.linkonce.b.*)
 .bss           0x00000000c00060a0        0x0 /home/cron/ubuntu/project/build/main.o
 .bss           0x00000000c00060a0        0x0 /home/cron/ubuntu/project/build/init.o
 .bss           0x00000000c00060a0      0x128 /home/cron/ubuntu/project/build/interrupt.o
                0x00000000c00060a0                intr_name
                0x00000000c0006140                idt_table
 .bss           0x00000000c00061c8        0x4 /home/cron/ubuntu/project/build/timer.o
                0x00000000c00061c8                ticks
 .bss           0x00000000c00061cc        0x0 /home/cron/ubuntu/project/build/debug.o
 .bss           0x00000000c00061cc        0x0 /home/cron/ubuntu/project/build/string.o
 .bss           0x00000000c00061cc       0x2c /home/cron/ubuntu/project/build/memory.o
                0x00000000c00061cc                user_pool
                0x00000000c00061dc                kernel_pool
                0x00000000c00061ec                kernel_vaddr
 .bss           0x00000000c00061f8        0x0 /home/cron/ubuntu/project/build/bitmap.o
 .bss           0x00000000c00061f8       0x28 /home/cron/ubuntu/project/build/thread.o
                0x00000000c00061f8                main_thread
                0x00000000c00061fc                thread_ready_list
                0x00000000c000620c                thread_all_list
 .bss           0x00000000c0006220        0x0 /home/cron/ubuntu/project/build/list.o
 *(COMMON)
                0x00000000c0006220                . = ALIGN ((. != 0x0)?0x4:0x1)
                0x00000000c0006220                . = ALIGN (0x4)
                0x00000000c0006220                . = SEGMENT_START ("ldata-segment", .)
                0x00000000c0006220                . = ALIGN (0x4)
                0x00000000c0006220                _end = .
                [!provide]                        PROVIDE (end = .)
                0x00000000c0006220                . = DATA_SEGMENT_END (.)

.stab
 *(.stab)

.stabstr
 *(.stabstr)

.stab.excl
 *(.stab.excl)

.stab.exclstr
 *(.stab.exclstr)

.stab.index
 *(.stab.index)

.stab.indexstr
 *(.stab.indexstr)

.comment        0x0000000000000000       0x2b
 *(.comment)
 .comment       0x0000000000000000       0x2b /home/cron/ubuntu/project/build/main.o
                                         0x2c (size before relaxing)
 .comment       0x000000000000002b       0x2c /home/cron/ubuntu/project/build/init.o
 .comment       0x000000000000002b       0x2c /home/cron/ubuntu/project/build/interrupt.o
 .comment       0x000000000000002b       0x2c /home/cron/ubuntu/project/build/timer.o
 .comment       0x000000000000002b       0x2c /home/cron/ubuntu/project/build/debug.o
 .comment       0x000000000000002b       0x2c /home/cron/ubuntu/project/build/string.o
 .comment       0x000000000000002b       0x2c /home/cron/ubuntu/project/build/memory.o
 .comment       0x000000000000002b       0x2c /home/cron/ubuntu/project/build/bitmap.o
 .comment       0x000000000000002b       0x2c /home/cron/ubuntu/project/build/thread.o
 .comment       0x000000000000002b       0x2c /home/cron/ubuntu/project/build/list.o

.gnu.build.attributes
 *(.gnu.build.attributes .gnu.build.attributes.*)

.debug
 *(.debug)

.line
 *(.line)

.debug_srcinfo
 *(.debug_srcinfo)

.debug_sfnames
 *(.debug_sfnames)

.debug_aranges
 *(.debug_aranges)

.debug_pubnames
 *(.debug_pubnames)

.debug_info
 *(.debug_info .gnu.linkonce.wi.*)

.debug_abbrev
 *(.debug_abbrev)

.debug_line
 *(.debug_line .debug_line.* .debug_line_end)

.debug_frame
 *(.debug_frame)

.debug_str
 *(.debug_str)

.debug_loc
 *(.debug_loc)

.debug_macinfo
 *(.debug_macinfo)

.debug_weaknames
 *(.debug_weaknames)

.debug_funcnames
 *(.debug_funcnames)

.debug_typenames
 *(.debug_typenames)

.debug_varnames
 *(.debug_varnames)

.debug_pubtypes
 *(.debug_pubtypes)

.debug_ranges
 *(.debug_ranges)

.debug_addr
 *(.debug_addr)

.debug_line_str
 *(.debug_line_str)

.debug_loclists
 *(.debug_loclists)

.debug_macro
 *(.debug_macro)

.debug_names
 *(.debug_names)

.debug_rnglists
 *(.debug_rnglists)

.debug_str_offsets
 *(.debug_str_offsets)

.debug_sup
 *(.debug_sup)

.gnu.attributes
 *(.gnu.attributes)

/DISCARD/
 *(.note.GNU-stack)
 *(.gnu_debuglink)
 *(.gnu.lto_*)
OUTPUT(/home/cron/ubuntu/project/build/kernel.bin elf32-i386)
